target datalayout = "e-m:e-p270:32:32-p271:32:32-p272:64:64-i64:64-i128:128-f80:128-n8:16:32:64-S128"
target triple = "x86_64-unknown-linux-gnu"

%"struct.node::AssertionInfo" = type { ptr, ptr, ptr }
%"class.node::MemoryRetainer" = type { ptr }
%"class.v8::IndirectHandleBase" = type { ptr }
%"class.v8::Local" = type { %"class.v8::LocalBase" }
%"class.v8::LocalBase" = type { %"class.v8::IndirectHandleBase" }
%"class.v8::Local.19" = type { %"class.v8::LocalBase.20" }
%"class.v8::LocalBase.20" = type { %"class.v8::IndirectHandleBase" }
%"class.v8::LocalBase.428" = type { %"class.v8::IndirectHandleBase" }
%"class.v8::Local.427" = type { %"class.v8::LocalBase.428" }
%"class.v8::Maybe.18" = type { i8, i8 }
%"class.v8::FunctionCallbackInfo" = type <{ ptr, ptr, i32, [4 x i8] }>
%"struct.node::crypto::RSAKeyExportConfig" = type <{ %"class.node::MemoryRetainer", i32, [4 x i8] }>

@_ZZN4node6crypto18RSAKeyExportTraits16AdditionalConfigERKN2v820FunctionCallbackInfoINS2_5ValueEEEjPNS0_18RSAKeyExportConfigEE4args = internal constant %"struct.node::AssertionInfo" { ptr @.str.25, ptr @.str.26, ptr @.str.27 }, align 8

; Function Attrs: mustprogress nounwind uwtable
define linkonce_odr dso_local void @_ZN2v85MaybeIbEC2EOb(ptr noundef nonnull align 1 dereferenceable(2) %this, ptr noundef nonnull align 1 dereferenceable(1) %t) unnamed_addr #4 comdat align 2 {
entry:
  %this.addr = alloca ptr, align 8
  %t.addr = alloca ptr, align 8
  store ptr %this, ptr %this.addr, align 8
  store ptr %t, ptr %t.addr, align 8
  %this1 = load ptr, ptr %this.addr, align 8
  %has_value_ = getelementptr inbounds %"class.v8::Maybe.18", ptr %this1, i32 0, i32 0
  store i8 1, ptr %has_value_, align 1
  %value_ = getelementptr inbounds %"class.v8::Maybe.18", ptr %this1, i32 0, i32 1
  %0 = load ptr, ptr %t.addr, align 8
  %1 = load i8, ptr %0, align 1
  %tobool = trunc i8 %1 to i1
  %frombool = zext i1 %tobool to i8
  store i8 %frombool, ptr %value_, align 1
  ret void
}

; Function Attrs: mustprogress nounwind uwtable
define linkonce_odr dso_local i16 @_ZN2v84JustIbTnPNSt9enable_ifIXntsr3stdE21is_lvalue_reference_vIT_EEvE4typeELPv0EEENS_5MaybeIS2_EEOS2_(ptr noundef nonnull align 1 dereferenceable(1) %t) #4 comdat {
entry:
  %retval = alloca %"class.v8::Maybe.18", align 1
  %t.addr = alloca ptr, align 8
  store ptr %t, ptr %t.addr, align 8
  %0 = load ptr, ptr %t.addr, align 8
  call void @_ZN2v85MaybeIbEC2EOb(ptr noundef nonnull align 1 dereferenceable(2) %retval, ptr noundef nonnull align 1 dereferenceable(1) %0)
  %1 = load i16, ptr %retval, align 1
  ret i16 %1
}

; Function Attrs: mustprogress nounwind uwtable
define dso_local i16 @_ZN4node6crypto18RSAKeyExportTraits16AdditionalConfigERKN2v820FunctionCallbackInfoINS2_5ValueEEEjPNS0_18RSAKeyExportConfigE(ptr noundef nonnull align 8 dereferenceable(20) %args, i32 noundef %offset, ptr noundef %params) #4 align 2 {
entry:
  %slot.addr.i153 = alloca ptr, align 8
  %this.addr.i.i149 = alloca ptr, align 8
  %this.addr.i150 = alloca ptr, align 8
  %this.addr.i146 = alloca ptr, align 8
  %other.addr.i147 = alloca ptr, align 8
  %this.addr.i143 = alloca ptr, align 8
  %other.addr.i144 = alloca ptr, align 8
  %retval.i140 = alloca %"class.v8::Local.19", align 8
  %that.i141 = alloca %"class.v8::Local", align 8
  %ref.tmp.i142 = alloca %"class.v8::LocalBase.20", align 8
  %slot.addr.i139 = alloca ptr, align 8
  %this.addr.i.i135 = alloca ptr, align 8
  %this.addr.i136 = alloca ptr, align 8
  %this.addr.i.i129 = alloca ptr, align 8
  %location.addr.i.i130 = alloca ptr, align 8
  %this.addr.i131 = alloca ptr, align 8
  %location.addr.i132 = alloca ptr, align 8
  %this.addr.i.i123 = alloca ptr, align 8
  %location.addr.i.i124 = alloca ptr, align 8
  %this.addr.i125 = alloca ptr, align 8
  %location.addr.i126 = alloca ptr, align 8
  %this.addr.i120 = alloca ptr, align 8
  %other.addr.i121 = alloca ptr, align 8
  %this.addr.i117 = alloca ptr, align 8
  %other.addr.i118 = alloca ptr, align 8
  %retval.i115 = alloca %"class.v8::LocalBase", align 8
  %slot.addr.i116 = alloca ptr, align 8
  %retval.i113 = alloca %"class.v8::LocalBase", align 8
  %slot.addr.i114 = alloca ptr, align 8
  %this.addr.i110 = alloca ptr, align 8
  %other.addr.i111 = alloca ptr, align 8
  %this.addr.i107 = alloca ptr, align 8
  %other.addr.i108 = alloca ptr, align 8
  %this.addr.i.i101 = alloca ptr, align 8
  %location.addr.i.i102 = alloca ptr, align 8
  %this.addr.i103 = alloca ptr, align 8
  %location.addr.i104 = alloca ptr, align 8
  %this.addr.i.i = alloca ptr, align 8
  %location.addr.i.i = alloca ptr, align 8
  %this.addr.i99 = alloca ptr, align 8
  %location.addr.i = alloca ptr, align 8
  %this.addr.i96 = alloca ptr, align 8
  %other.addr.i97 = alloca ptr, align 8
  %this.addr.i94 = alloca ptr, align 8
  %other.addr.i = alloca ptr, align 8
  %retval.i92 = alloca %"class.v8::LocalBase.428", align 8
  %slot.addr.i93 = alloca ptr, align 8
  %retval.i90 = alloca %"class.v8::LocalBase.428", align 8
  %slot.addr.i91 = alloca ptr, align 8
  %retval.i86 = alloca %"class.v8::Local.427", align 8
  %slot.addr.i87 = alloca ptr, align 8
  %ref.tmp.i88 = alloca %"class.v8::LocalBase.428", align 8
  %retval.i83 = alloca %"class.v8::Local.427", align 8
  %slot.addr.i84 = alloca ptr, align 8
  %ref.tmp.i85 = alloca %"class.v8::LocalBase.428", align 8
  %isolate.addr.i76 = alloca ptr, align 8
  %index.addr.i77 = alloca i32, align 4
  %addr.i78 = alloca i64, align 8
  %isolate.addr.i75 = alloca ptr, align 8
  %index.addr.i = alloca i32, align 4
  %addr.i = alloca i64, align 8
  %isolate.addr.i74 = alloca ptr, align 8
  %isolate.addr.i73 = alloca ptr, align 8
  %retval.i69 = alloca %"class.v8::Local", align 8
  %slot.addr.i70 = alloca ptr, align 8
  %ref.tmp.i71 = alloca %"class.v8::LocalBase", align 8
  %retval.i67 = alloca %"class.v8::Local", align 8
  %slot.addr.i = alloca ptr, align 8
  %ref.tmp.i = alloca %"class.v8::LocalBase", align 8
  %that.i64 = alloca %"class.v8::Local.427", align 8
  %this.addr.i65 = alloca ptr, align 8
  %that.i = alloca %"class.v8::Local.427", align 8
  %this.addr.i63 = alloca ptr, align 8
  %retval.i58 = alloca %"class.v8::Local.427", align 8
  %isolate.addr.i59 = alloca ptr, align 8
  %slot.i60 = alloca ptr, align 8
  %retval.i57 = alloca %"class.v8::Local.427", align 8
  %isolate.addr.i = alloca ptr, align 8
  %slot.i = alloca ptr, align 8
  %this.addr.i54 = alloca ptr, align 8
  %this.addr.i52 = alloca ptr, align 8
  %this.addr.i49 = alloca ptr, align 8
  %retval.i44 = alloca %"class.v8::Local.19", align 8
  %this.addr.i45 = alloca ptr, align 8
  %agg.tmp.i46 = alloca %"class.v8::Local", align 8
  %this.addr.i41 = alloca ptr, align 8
  %retval.i23 = alloca %"class.v8::Local", align 8
  %this.addr.i24 = alloca ptr, align 8
  %i.addr.i25 = alloca i32, align 4
  %agg.tmp.i26 = alloca %"class.v8::Local.427", align 8
  %retval.i = alloca %"class.v8::Local", align 8
  %this.addr.i = alloca ptr, align 8
  %i.addr.i = alloca i32, align 4
  %agg.tmp.i = alloca %"class.v8::Local.427", align 8
  %retval = alloca %"class.v8::Maybe.18", align 1
  %args.addr = alloca ptr, align 8
  %offset.addr = alloca i32, align 4
  %params.addr = alloca ptr, align 8
  %ref.tmp = alloca %"class.v8::Local", align 8
  %ref.tmp9 = alloca %"class.v8::Local.19", align 8
  %ref.tmp10 = alloca %"class.v8::Local", align 8
  %ref.tmp21 = alloca i8, align 1
  store ptr %args, ptr %args.addr, align 8
  store i32 %offset, ptr %offset.addr, align 4
  store ptr %params, ptr %params.addr, align 8
  br label %do.body

do.body:                                          ; preds = %entry
  %0 = load ptr, ptr %args.addr, align 8
  %1 = load i32, ptr %offset.addr, align 4
  store ptr %0, ptr %this.addr.i24, align 8
  store i32 %1, ptr %i.addr.i25, align 4
  %this1.i27 = load ptr, ptr %this.addr.i24, align 8
  %2 = load i32, ptr %i.addr.i25, align 4
  %cmp.i28 = icmp slt i32 %2, 0
  br i1 %cmp.i28, label %if.then.i37, label %lor.lhs.false.i29

lor.lhs.false.i29:                                ; preds = %do.body
  %length_.i30 = getelementptr inbounds %"class.v8::FunctionCallbackInfo", ptr %this1.i27, i32 0, i32 2
  %3 = load i32, ptr %length_.i30, align 8
  %4 = load i32, ptr %i.addr.i25, align 4
  %cmp2.i31 = icmp sle i32 %3, %4
  br i1 %cmp2.i31, label %if.then.i37, label %if.end.i32

if.then.i37:                                      ; preds = %lor.lhs.false.i29, %do.body
  store ptr %this1.i27, ptr %this.addr.i52, align 8
  %this1.i53 = load ptr, ptr %this.addr.i52, align 8
  %5 = load ptr, ptr %this1.i53, align 8
  %arrayidx.i = getelementptr inbounds i64, ptr %5, i64 1
  %6 = load ptr, ptr %arrayidx.i, align 8
  store ptr %6, ptr %isolate.addr.i, align 8
  %7 = load ptr, ptr %isolate.addr.i, align 8
  store ptr %7, ptr %isolate.addr.i74, align 8
  %8 = load ptr, ptr %isolate.addr.i, align 8
  store ptr %8, ptr %isolate.addr.i76, align 8
  store i32 4, ptr %index.addr.i77, align 4
  %9 = load ptr, ptr %isolate.addr.i76, align 8
  %10 = ptrtoint ptr %9 to i64
  %add.i79 = add i64 %10, 576
  %11 = load i32, ptr %index.addr.i77, align 4
  %mul.i80 = mul nsw i32 %11, 8
  %conv.i81 = sext i32 %mul.i80 to i64
  %add1.i82 = add i64 %add.i79, %conv.i81
  store i64 %add1.i82, ptr %addr.i78, align 8
  %12 = load i64, ptr %addr.i78, align 8
  %13 = inttoptr i64 %12 to ptr
  store ptr %13, ptr %slot.i, align 8
  %14 = load ptr, ptr %slot.i, align 8
  store ptr %14, ptr %slot.addr.i87, align 8
  %15 = load ptr, ptr %slot.addr.i87, align 8
  store ptr %15, ptr %slot.addr.i91, align 8
  %16 = load ptr, ptr %slot.addr.i91, align 8
  store ptr %retval.i90, ptr %this.addr.i103, align 8
  store ptr %16, ptr %location.addr.i104, align 8
  %this1.i105 = load ptr, ptr %this.addr.i103, align 8
  %17 = load ptr, ptr %location.addr.i104, align 8
  store ptr %this1.i105, ptr %this.addr.i.i101, align 8
  store ptr %17, ptr %location.addr.i.i102, align 8
  %this1.i.i106 = load ptr, ptr %this.addr.i.i101, align 8
  %18 = load ptr, ptr %location.addr.i.i102, align 8
  store ptr %18, ptr %this1.i.i106, align 8
  %19 = load ptr, ptr %retval.i90, align 8
  store ptr %19, ptr %ref.tmp.i88, align 8
  store ptr %retval.i86, ptr %this.addr.i94, align 8
  store ptr %ref.tmp.i88, ptr %other.addr.i, align 8
  %this1.i95 = load ptr, ptr %this.addr.i94, align 8
  %20 = load ptr, ptr %other.addr.i, align 8
  call void @llvm.memcpy.p0.p0.i64(ptr align 8 %this1.i95, ptr align 8 %20, i64 8, i1 false)
  %21 = load ptr, ptr %retval.i86, align 8
  store ptr %21, ptr %retval.i57, align 8
  %22 = load ptr, ptr %retval.i57, align 8
  store ptr %22, ptr %agg.tmp.i26, align 8
  %23 = load ptr, ptr %agg.tmp.i26, align 8
  store ptr %23, ptr %that.i, align 8
  store ptr %retval.i23, ptr %this.addr.i63, align 8
  %this3.i = load ptr, ptr %this.addr.i63, align 8
  store ptr %this3.i, ptr %this.addr.i110, align 8
  store ptr %that.i, ptr %other.addr.i111, align 8
  %this1.i112 = load ptr, ptr %this.addr.i110, align 8
  %24 = load ptr, ptr %other.addr.i111, align 8
  call void @llvm.memcpy.p0.p0.i64(ptr align 8 %this1.i112, ptr align 8 %24, i64 8, i1 false)
  br label %_ZNK2v820FunctionCallbackInfoINS_5ValueEEixEi.exit40

if.end.i32:                                       ; preds = %lor.lhs.false.i29
  %values_.i33 = getelementptr inbounds %"class.v8::FunctionCallbackInfo", ptr %this1.i27, i32 0, i32 1
  %25 = load ptr, ptr %values_.i33, align 8
  %26 = load i32, ptr %i.addr.i25, align 4
  %idx.ext.i34 = sext i32 %26 to i64
  %add.ptr.i35 = getelementptr inbounds i64, ptr %25, i64 %idx.ext.i34
  store ptr %add.ptr.i35, ptr %slot.addr.i, align 8
  %27 = load ptr, ptr %slot.addr.i, align 8
  store ptr %27, ptr %slot.addr.i116, align 8
  %28 = load ptr, ptr %slot.addr.i116, align 8
  store ptr %retval.i115, ptr %this.addr.i125, align 8
  store ptr %28, ptr %location.addr.i126, align 8
  %this1.i127 = load ptr, ptr %this.addr.i125, align 8
  %29 = load ptr, ptr %location.addr.i126, align 8
  store ptr %this1.i127, ptr %this.addr.i.i123, align 8
  store ptr %29, ptr %location.addr.i.i124, align 8
  %this1.i.i128 = load ptr, ptr %this.addr.i.i123, align 8
  %30 = load ptr, ptr %location.addr.i.i124, align 8
  store ptr %30, ptr %this1.i.i128, align 8
  %31 = load ptr, ptr %retval.i115, align 8
  store ptr %31, ptr %ref.tmp.i, align 8
  store ptr %retval.i67, ptr %this.addr.i120, align 8
  store ptr %ref.tmp.i, ptr %other.addr.i121, align 8
  %this1.i122 = load ptr, ptr %this.addr.i120, align 8
  %32 = load ptr, ptr %other.addr.i121, align 8
  call void @llvm.memcpy.p0.p0.i64(ptr align 8 %this1.i122, ptr align 8 %32, i64 8, i1 false)
  %33 = load ptr, ptr %retval.i67, align 8
  store ptr %33, ptr %retval.i23, align 8
  br label %_ZNK2v820FunctionCallbackInfoINS_5ValueEEixEi.exit40

_ZNK2v820FunctionCallbackInfoINS_5ValueEEixEi.exit40: ; preds = %if.end.i32, %if.then.i37
  %34 = load ptr, ptr %retval.i23, align 8
  %coerce.dive = getelementptr inbounds %"class.v8::Local", ptr %ref.tmp, i32 0, i32 0
  %coerce.dive1 = getelementptr inbounds %"class.v8::LocalBase", ptr %coerce.dive, i32 0, i32 0
  %coerce.dive2 = getelementptr inbounds %"class.v8::IndirectHandleBase", ptr %coerce.dive1, i32 0, i32 0
  store ptr %34, ptr %coerce.dive2, align 8
  store ptr %ref.tmp, ptr %this.addr.i41, align 8
  %this1.i42 = load ptr, ptr %this.addr.i41, align 8
  store ptr %this1.i42, ptr %this.addr.i136, align 8
  %this1.i137 = load ptr, ptr %this.addr.i136, align 8
  store ptr %this1.i137, ptr %this.addr.i.i135, align 8
  %this1.i.i138 = load ptr, ptr %this.addr.i.i135, align 8
  %35 = load ptr, ptr %this1.i.i138, align 8
  store ptr %35, ptr %slot.addr.i139, align 8
  %36 = load ptr, ptr %slot.addr.i139, align 8
  %call4 = call noundef zeroext i1 @_ZNK2v85Value8IsUint32Ev(ptr noundef nonnull align 1 dereferenceable(1) %36)
  %lnot = xor i1 %call4, true
  %lnot5 = xor i1 %lnot, true
  %lnot6 = xor i1 %lnot5, true
  br i1 %lnot6, label %if.then, label %if.end

if.then:                                          ; preds = %_ZNK2v820FunctionCallbackInfoINS_5ValueEEixEi.exit40
  br label %do.body7

do.body7:                                         ; preds = %if.then
  call void @_ZN4node6AssertERKNS_13AssertionInfoE(ptr noundef nonnull align 8 dereferenceable(24) @_ZZN4node6crypto18RSAKeyExportTraits16AdditionalConfigERKN2v820FunctionCallbackInfoINS2_5ValueEEEjPNS0_18RSAKeyExportConfigEE4args)
  call void @abort() #14
  unreachable

do.end:                                           ; No predecessors!
  br label %if.end

if.end:                                           ; preds = %do.end, %_ZNK2v820FunctionCallbackInfoINS_5ValueEEixEi.exit40
  br label %do.end8

do.end8:                                          ; preds = %if.end
  %37 = load ptr, ptr %args.addr, align 8
  %38 = load i32, ptr %offset.addr, align 4
  store ptr %37, ptr %this.addr.i, align 8
  store i32 %38, ptr %i.addr.i, align 4
  %this1.i = load ptr, ptr %this.addr.i, align 8
  %39 = load i32, ptr %i.addr.i, align 4
  %cmp.i = icmp slt i32 %39, 0
  br i1 %cmp.i, label %if.then.i, label %lor.lhs.false.i

lor.lhs.false.i:                                  ; preds = %do.end8
  %length_.i = getelementptr inbounds %"class.v8::FunctionCallbackInfo", ptr %this1.i, i32 0, i32 2
  %40 = load i32, ptr %length_.i, align 8
  %41 = load i32, ptr %i.addr.i, align 4
  %cmp2.i = icmp sle i32 %40, %41
  br i1 %cmp2.i, label %if.then.i, label %if.end.i

if.then.i:                                        ; preds = %lor.lhs.false.i, %do.end8
  store ptr %this1.i, ptr %this.addr.i54, align 8
  %this1.i55 = load ptr, ptr %this.addr.i54, align 8
  %42 = load ptr, ptr %this1.i55, align 8
  %arrayidx.i56 = getelementptr inbounds i64, ptr %42, i64 1
  %43 = load ptr, ptr %arrayidx.i56, align 8
  store ptr %43, ptr %isolate.addr.i59, align 8
  %44 = load ptr, ptr %isolate.addr.i59, align 8
  store ptr %44, ptr %isolate.addr.i73, align 8
  %45 = load ptr, ptr %isolate.addr.i59, align 8
  store ptr %45, ptr %isolate.addr.i75, align 8
  store i32 4, ptr %index.addr.i, align 4
  %46 = load ptr, ptr %isolate.addr.i75, align 8
  %47 = ptrtoint ptr %46 to i64
  %add.i = add i64 %47, 576
  %48 = load i32, ptr %index.addr.i, align 4
  %mul.i = mul nsw i32 %48, 8
  %conv.i = sext i32 %mul.i to i64
  %add1.i = add i64 %add.i, %conv.i
  store i64 %add1.i, ptr %addr.i, align 8
  %49 = load i64, ptr %addr.i, align 8
  %50 = inttoptr i64 %49 to ptr
  store ptr %50, ptr %slot.i60, align 8
  %51 = load ptr, ptr %slot.i60, align 8
  store ptr %51, ptr %slot.addr.i84, align 8
  %52 = load ptr, ptr %slot.addr.i84, align 8
  store ptr %52, ptr %slot.addr.i93, align 8
  %53 = load ptr, ptr %slot.addr.i93, align 8
  store ptr %retval.i92, ptr %this.addr.i99, align 8
  store ptr %53, ptr %location.addr.i, align 8
  %this1.i100 = load ptr, ptr %this.addr.i99, align 8
  %54 = load ptr, ptr %location.addr.i, align 8
  store ptr %this1.i100, ptr %this.addr.i.i, align 8
  store ptr %54, ptr %location.addr.i.i, align 8
  %this1.i.i = load ptr, ptr %this.addr.i.i, align 8
  %55 = load ptr, ptr %location.addr.i.i, align 8
  store ptr %55, ptr %this1.i.i, align 8
  %56 = load ptr, ptr %retval.i92, align 8
  store ptr %56, ptr %ref.tmp.i85, align 8
  store ptr %retval.i83, ptr %this.addr.i96, align 8
  store ptr %ref.tmp.i85, ptr %other.addr.i97, align 8
  %this1.i98 = load ptr, ptr %this.addr.i96, align 8
  %57 = load ptr, ptr %other.addr.i97, align 8
  call void @llvm.memcpy.p0.p0.i64(ptr align 8 %this1.i98, ptr align 8 %57, i64 8, i1 false)
  %58 = load ptr, ptr %retval.i83, align 8
  store ptr %58, ptr %retval.i58, align 8
  %59 = load ptr, ptr %retval.i58, align 8
  store ptr %59, ptr %agg.tmp.i, align 8
  %60 = load ptr, ptr %agg.tmp.i, align 8
  store ptr %60, ptr %that.i64, align 8
  store ptr %retval.i, ptr %this.addr.i65, align 8
  %this3.i66 = load ptr, ptr %this.addr.i65, align 8
  store ptr %this3.i66, ptr %this.addr.i107, align 8
  store ptr %that.i64, ptr %other.addr.i108, align 8
  %this1.i109 = load ptr, ptr %this.addr.i107, align 8
  %61 = load ptr, ptr %other.addr.i108, align 8
  call void @llvm.memcpy.p0.p0.i64(ptr align 8 %this1.i109, ptr align 8 %61, i64 8, i1 false)
  br label %_ZNK2v820FunctionCallbackInfoINS_5ValueEEixEi.exit

if.end.i:                                         ; preds = %lor.lhs.false.i
  %values_.i = getelementptr inbounds %"class.v8::FunctionCallbackInfo", ptr %this1.i, i32 0, i32 1
  %62 = load ptr, ptr %values_.i, align 8
  %63 = load i32, ptr %i.addr.i, align 4
  %idx.ext.i = sext i32 %63 to i64
  %add.ptr.i = getelementptr inbounds i64, ptr %62, i64 %idx.ext.i
  store ptr %add.ptr.i, ptr %slot.addr.i70, align 8
  %64 = load ptr, ptr %slot.addr.i70, align 8
  store ptr %64, ptr %slot.addr.i114, align 8
  %65 = load ptr, ptr %slot.addr.i114, align 8
  store ptr %retval.i113, ptr %this.addr.i131, align 8
  store ptr %65, ptr %location.addr.i132, align 8
  %this1.i133 = load ptr, ptr %this.addr.i131, align 8
  %66 = load ptr, ptr %location.addr.i132, align 8
  store ptr %this1.i133, ptr %this.addr.i.i129, align 8
  store ptr %66, ptr %location.addr.i.i130, align 8
  %this1.i.i134 = load ptr, ptr %this.addr.i.i129, align 8
  %67 = load ptr, ptr %location.addr.i.i130, align 8
  store ptr %67, ptr %this1.i.i134, align 8
  %68 = load ptr, ptr %retval.i113, align 8
  store ptr %68, ptr %ref.tmp.i71, align 8
  store ptr %retval.i69, ptr %this.addr.i117, align 8
  store ptr %ref.tmp.i71, ptr %other.addr.i118, align 8
  %this1.i119 = load ptr, ptr %this.addr.i117, align 8
  %69 = load ptr, ptr %other.addr.i118, align 8
  call void @llvm.memcpy.p0.p0.i64(ptr align 8 %this1.i119, ptr align 8 %69, i64 8, i1 false)
  %70 = load ptr, ptr %retval.i69, align 8
  store ptr %70, ptr %retval.i, align 8
  br label %_ZNK2v820FunctionCallbackInfoINS_5ValueEEixEi.exit

_ZNK2v820FunctionCallbackInfoINS_5ValueEEixEi.exit: ; preds = %if.end.i, %if.then.i
  %71 = load ptr, ptr %retval.i, align 8
  %coerce.dive12 = getelementptr inbounds %"class.v8::Local", ptr %ref.tmp10, i32 0, i32 0
  %coerce.dive13 = getelementptr inbounds %"class.v8::LocalBase", ptr %coerce.dive12, i32 0, i32 0
  %coerce.dive14 = getelementptr inbounds %"class.v8::IndirectHandleBase", ptr %coerce.dive13, i32 0, i32 0
  store ptr %71, ptr %coerce.dive14, align 8
  store ptr %ref.tmp10, ptr %this.addr.i45, align 8
  %this1.i47 = load ptr, ptr %this.addr.i45, align 8
  call void @llvm.memcpy.p0.p0.i64(ptr align 8 %agg.tmp.i46, ptr align 8 %this1.i47, i64 8, i1 false)
  %72 = load ptr, ptr %agg.tmp.i46, align 8
  store ptr %72, ptr %that.i141, align 8
  store ptr %ref.tmp.i142, ptr %this.addr.i143, align 8
  store ptr %that.i141, ptr %other.addr.i144, align 8
  %this1.i145 = load ptr, ptr %this.addr.i143, align 8
  %73 = load ptr, ptr %other.addr.i144, align 8
  call void @llvm.memcpy.p0.p0.i64(ptr align 8 %this1.i145, ptr align 8 %73, i64 8, i1 false)
  store ptr %retval.i140, ptr %this.addr.i146, align 8
  store ptr %ref.tmp.i142, ptr %other.addr.i147, align 8
  %this1.i148 = load ptr, ptr %this.addr.i146, align 8
  %74 = load ptr, ptr %other.addr.i147, align 8
  call void @llvm.memcpy.p0.p0.i64(ptr align 8 %this1.i148, ptr align 8 %74, i64 8, i1 false)
  %75 = load ptr, ptr %retval.i140, align 8
  store ptr %75, ptr %retval.i44, align 8
  %76 = load ptr, ptr %retval.i44, align 8
  %coerce.dive16 = getelementptr inbounds %"class.v8::Local.19", ptr %ref.tmp9, i32 0, i32 0
  %coerce.dive17 = getelementptr inbounds %"class.v8::LocalBase.20", ptr %coerce.dive16, i32 0, i32 0
  %coerce.dive18 = getelementptr inbounds %"class.v8::IndirectHandleBase", ptr %coerce.dive17, i32 0, i32 0
  store ptr %76, ptr %coerce.dive18, align 8
  store ptr %ref.tmp9, ptr %this.addr.i49, align 8
  %this1.i50 = load ptr, ptr %this.addr.i49, align 8
  store ptr %this1.i50, ptr %this.addr.i150, align 8
  %this1.i151 = load ptr, ptr %this.addr.i150, align 8
  store ptr %this1.i151, ptr %this.addr.i.i149, align 8
  %this1.i.i152 = load ptr, ptr %this.addr.i.i149, align 8
  %77 = load ptr, ptr %this1.i.i152, align 8
  store ptr %77, ptr %slot.addr.i153, align 8
  %78 = load ptr, ptr %slot.addr.i153, align 8
  %call20 = call noundef i32 @_ZNK2v86Uint325ValueEv(ptr noundef nonnull align 1 dereferenceable(1) %78)
  %79 = load ptr, ptr %params.addr, align 8
  %variant = getelementptr inbounds %"struct.node::crypto::RSAKeyExportConfig", ptr %79, i32 0, i32 1
  store i32 %call20, ptr %variant, align 8
  store i8 1, ptr %ref.tmp21, align 1
  %call22 = call i16 @_ZN2v84JustIbTnPNSt9enable_ifIXntsr3stdE21is_lvalue_reference_vIT_EEvE4typeELPv0EEENS_5MaybeIS2_EEOS2_(ptr noundef nonnull align 1 dereferenceable(1) %ref.tmp21)
  store i16 %call22, ptr %retval, align 1
  %80 = load i16, ptr %retval, align 1
  ret i16 %80
}