; Function Attrs: mustprogress nounwind uwtable
define dso_local noundef i16 @_ZN4node6crypto18RSAKeyExportTraits16AdditionalConfigERKN2v820FunctionCallbackInfoINS2_5ValueEEEjPNS0_18RSAKeyExportConfigE(ptr nocapture noundef nonnull readonly align 8 dereferenceable(20) %args, i32 noundef %offset, ptr nocapture noundef writeonly %params) local_unnamed_addr #3 align 2 {
entry:
  %cmp.i28 = icmp sgt i32 %offset, -1
  %length_.i30 = getelementptr inbounds i8, ptr %args, i64 16
  %0 = load i32, ptr %length_.i30, align 8
  %cmp2.i31.not = icmp sgt i32 %0, %offset
  %or.cond = select i1 %cmp.i28, i1 %cmp2.i31.not, i1 false
  br i1 %or.cond, label %if.end.i32, label %if.then.i37

if.then.i37:                                      ; preds = %entry
  %1 = load ptr, ptr %args, align 8
  %arrayidx.i = getelementptr inbounds i8, ptr %1, i64 8
  %2 = load ptr, ptr %arrayidx.i, align 8
  %3 = ptrtoint ptr %2 to i64
  %add1.i82 = add i64 %3, 608
  %4 = inttoptr i64 %add1.i82 to ptr
  br label %_ZNK2v820FunctionCallbackInfoINS_5ValueEEixEi.exit40

if.end.i32:                                       ; preds = %entry
  %values_.i33 = getelementptr inbounds i8, ptr %args, i64 8
  %5 = load ptr, ptr %values_.i33, align 8
  %idx.ext.i34 = zext nneg i32 %offset to i64
  %add.ptr.i35 = getelementptr inbounds i64, ptr %5, i64 %idx.ext.i34
  br label %_ZNK2v820FunctionCallbackInfoINS_5ValueEEixEi.exit40

_ZNK2v820FunctionCallbackInfoINS_5ValueEEixEi.exit40: ; preds = %if.end.i32, %if.then.i37
  %retval.i23.sroa.0.0 = phi ptr [ %4, %if.then.i37 ], [ %add.ptr.i35, %if.end.i32 ]
  %call4 = tail call noundef zeroext i1 @_ZNK2v85Value8IsUint32Ev(ptr noundef nonnull align 1 dereferenceable(1) %retval.i23.sroa.0.0) #20
  br i1 %call4, label %do.end8, label %do.body7

do.body7:                                         ; preds = %_ZNK2v820FunctionCallbackInfoINS_5ValueEEixEi.exit40
  tail call void @_ZN4node6AssertERKNS_13AssertionInfoE(ptr noundef nonnull align 8 dereferenceable(24) @_ZZN4node6crypto18RSAKeyExportTraits16AdditionalConfigERKN2v820FunctionCallbackInfoINS2_5ValueEEEjPNS0_18RSAKeyExportConfigEE4args) #20
  tail call void @abort() #21
  unreachable

do.end8:                                          ; preds = %_ZNK2v820FunctionCallbackInfoINS_5ValueEEixEi.exit40
  %6 = load i32, ptr %length_.i30, align 8
  %cmp2.i.not = icmp sgt i32 %6, %offset
  %or.cond10 = select i1 %cmp.i28, i1 %cmp2.i.not, i1 false
  br i1 %or.cond10, label %if.end.i, label %if.then.i

if.then.i:                                        ; preds = %do.end8
  %7 = load ptr, ptr %args, align 8
  %arrayidx.i56 = getelementptr inbounds i8, ptr %7, i64 8
  %8 = load ptr, ptr %arrayidx.i56, align 8
  %9 = ptrtoint ptr %8 to i64
  %add1.i = add i64 %9, 608
  %10 = inttoptr i64 %add1.i to ptr
  br label %_ZNK2v820FunctionCallbackInfoINS_5ValueEEixEi.exit

if.end.i:                                         ; preds = %do.end8
  %values_.i = getelementptr inbounds i8, ptr %args, i64 8
  %11 = load ptr, ptr %values_.i, align 8
  %idx.ext.i = zext nneg i32 %offset to i64
  %add.ptr.i = getelementptr inbounds i64, ptr %11, i64 %idx.ext.i
  br label %_ZNK2v820FunctionCallbackInfoINS_5ValueEEixEi.exit

_ZNK2v820FunctionCallbackInfoINS_5ValueEEixEi.exit: ; preds = %if.end.i, %if.then.i
  %retval.i.sroa.0.0 = phi ptr [ %10, %if.then.i ], [ %add.ptr.i, %if.end.i ]
  %call20 = tail call noundef i32 @_ZNK2v86Uint325ValueEv(ptr noundef nonnull align 1 dereferenceable(1) %retval.i.sroa.0.0) #20
  %variant = getelementptr inbounds i8, ptr %params, i64 8
  store i32 %call20, ptr %variant, align 8
  ret i16 257
}